; Function Attrs: mustprogress nofree norecurse nosync nounwind willreturn memory(read, inaccessiblemem: none) uwtable
define hidden ptr @SSL_get_peer_cert_chain(ptr noundef readonly captures(address_is_null) %0) local_unnamed_addr #10 {
  %2 = icmp eq ptr %0, null
  br i1 %2, label %10, label %3

3:                                                ; preds = %1
  %4 = getelementptr inbounds nuw i8, ptr %0, i64 184
  %5 = load ptr, ptr %4, align 8, !tbaa !122
  %6 = icmp eq ptr %5, null
  br i1 %6, label %10, label %7

7:                                                ; preds = %3
  %8 = getelementptr inbounds nuw i8, ptr %5, i64 152
  %9 = load ptr, ptr %8, align 8, !tbaa !156
  br label %10

10:                                               ; preds = %1, %3, %7
  %.0 = phi ptr [ %9, %7 ], [ null, %3 ], [ null, %1 ]
  ret ptr %.0
}